Certificate:
    Data:
        Version: 1 (0x0)
        Serial Number: 363 (0x16b)
        Signature Algorithm: sha1WithRSAEncryption
        Issuer: O=Radvision, OU=NBU/emailAddress=nbu_qa@radvision.com, L=Tel Aviv, ST=none, C=IL, CN=qa.tlv.radvision.com
        Validity
            Not Before: Apr  3 12:00:09 2011 GMT
            Not After : Apr  2 12:00:09 2012 GMT
        Subject: C=IL, ST=none, O=Radvision, OU=NBU, L=Tel Aviv, CN=RadvisionXMLClient.com
        Subject Public Key Info:
            Public Key Algorithm: rsaEncryption
            RSA Public Key: (2048 bit)
                Modulus (2048 bit):
                    00:d7:76:a5:e0:a2:f5:af:c1:24:27:af:47:19:ee:
                    18:8d:46:4b:26:5c:d8:76:1b:82:df:bd:03:9d:99:
                    67:5a:dc:ed:39:bb:ff:84:7f:5b:77:92:62:6e:da:
                    68:a8:e5:bd:2d:ee:6e:0b:9a:03:64:5b:cb:ff:78:
                    c7:f7:96:69:e4:8c:64:9a:c1:a5:27:e4:8d:12:7f:
                    81:6d:67:c1:40:23:7e:3e:32:45:3f:b2:d1:95:37:
                    2e:e4:b1:f9:5a:c7:e2:39:9b:90:e4:2f:77:93:39:
                    41:65:4f:03:43:07:30:c5:3d:25:76:0f:42:41:c2:
                    fa:76:30:34:d0:d8:7f:6e:be:fa:3f:70:ce:0a:96:
                    36:9f:a3:1e:d2:35:a2:05:a4:2b:0e:1c:eb:af:96:
                    3d:4f:00:e1:5b:e5:79:e0:b4:bb:ed:af:e5:13:3e:
                    c9:50:c9:d9:35:05:bd:89:dc:42:1f:0f:fa:47:1d:
                    81:12:95:d1:63:f2:56:a4:3a:c0:99:86:5e:e5:aa:
                    e1:06:1f:96:7d:74:9e:ba:8a:3e:c0:d5:f6:79:8e:
                    5c:8a:3a:5c:9a:2e:ca:85:fc:3f:c0:9f:3e:ed:22:
                    24:2d:5e:36:c6:c7:02:68:11:4f:ef:a7:52:ad:5c:
                    40:bb:5e:fa:cb:03:8c:2f:a4:4a:2f:45:2c:69:f5:
                    f5:f9
                Exponent: 65537 (0x10001)
    Signature Algorithm: sha1WithRSAEncryption
        ac:fb:b8:33:4a:6a:1a:7d:3f:e7:c8:e3:aa:36:7b:74:67:78:
        0b:65:5e:2c:5c:93:1e:41:07:b3:ed:7e:80:82:59:5b:ab:2b:
        2c:7c:84:bb:ff:ad:ad:aa:99:22:73:85:a1:a5:a9:51:03:d0:
        ed:04:ca:ef:24:fa:8c:48:76:56:a9:86:28:e7:15:6d:8e:ea:
        99:be:a2:f7:74:cd:2b:1a:91:8e:a3:be:f0:80:06:51:93:02:
        44:25:e2:a8:b5:9e:bc:7f:df:73:e0:cf:a4:5c:20:6e:83:f6:
        f4:59:bb:09:6a:35:61:b0:09:0a:53:6a:3e:2b:4b:e5:93:a3:
        fa:9e:a9:ff:04:fb:bd:0b:39:9f:36:9e:fa:01:a9:9e:ab:7c:
        14:e9:ae:cc:79:54:3b:83:50:d2:a8:c1:c2:6a:b7:d5:49:af:
        97:25:1b:16:b7:3b:1f:38:04:33:b8:ce:0f:df:d3:64:b3:2d:
        b8:d2:ed:c1:44:63:b0:8b:7e:e4:c0:88:93:bf:92:fe:24:87:
        8a:95:72:a0:81:d4:36:de:1e:bc:04:cd:b7:73:e3:a0:7e:06:
        ba:a6:15:08:2b:aa:9f:e0:b0:df:21:96:33:c6:21:07:0e:46:
        03:1e:57:a3:2d:18:b9:2d:a2:69:42:c3:ad:df:95:bc:f3:8b:
        1c:58:aa:c9:b6:00:f0:08:7e:fa:a9:5c:db:f8:31:79:12:5c:
        2f:c1:cb:c7:36:04:aa:dd:3d:a3:c4:59:33:cb:09:3c:28:b0:
        aa:29:2e:88:93:c7:b7:3f:6e:55:50:c7:ed:dd:2e:a7:1c:f0:
        3d:02:53:7b:dd:b5:5e:37:49:b6:9c:a1:f5:1c:35:7a:2a:86:
        1a:12:04:92:05:3c:0d:4b:78:d8:5d:44:1c:57:a7:19:17:b5:
        17:09:e2:dc:13:f4:36:5e:6b:03:05:32:ea:3d:47:6a:2a:6c:
        97:1f:12:87:a7:08:28:73:4d:66:94:f5:cd:31:51:d7:46:2b:
        0b:76:ed:63:cd:15:db:71:22:57:d3:b7:96:e5:ca:0c:f1:4e:
        ce:a2:97:21:19:c3:dd:a2:ac:0a:2b:cb:43:90:e5:e9:32:27:
        d6:98:b1:de:84:99:7d:e7:59:ec:b3:12:15:1e:d0:0e:74:8c:
        1a:f5:18:02:36:fb:0b:0a:aa:d4:52:db:87:25:0c:48:e6:93:
        de:72:84:a0:3a:a1:36:de:c4:6c:02:4c:34:7b:bd:11:cd:84:
        90:cd:fc:2c:1e:32:df:89:42:75:59:75:5b:d8:5c:1f:36:26:
        51:d3:94:73:25:cd:77:a5:4b:96:08:89:b7:12:b2:ee:28:a9:
        6c:ab:a5:53:8c:1f:0c:65
-----BEGIN CERTIFICATE-----
MIIEfTCCAmUCAgFrMA0GCSqGSIb3DQEBBQUAMIGVMRIwEAYDVQQKEwlSYWR2aXNp
b24xDDAKBgNVBAsTA05CVTEjMCEGCSqGSIb3DQEJARYUbmJ1X3FhQHJhZHZpc2lv
bi5jb20xETAPBgNVBAcTCFRlbCBBdml2MQ0wCwYDVQQIEwRub25lMQswCQYDVQQG
EwJJTDEdMBsGA1UEAxMUcWEudGx2LnJhZHZpc2lvbi5jb20wHhcNMTEwNDAzMTIw
MDA5WhcNMTIwNDAyMTIwMDA5WjByMQswCQYDVQQGEwJJTDENMAsGA1UECBMEbm9u
ZTESMBAGA1UEChMJUmFkdmlzaW9uMQwwCgYDVQQLEwNOQlUxETAPBgNVBAcTCFRl
bCBBdml2MR8wHQYDVQQDExZSYWR2aXNpb25YTUxDbGllbnQuY29tMIIBIjANBgkq
hkiG9w0BAQEFAAOCAQ8AMIIBCgKCAQEA13al4KL1r8EkJ69HGe4YjUZLJlzYdhuC
370DnZlnWtztObv/hH9bd5JibtpoqOW9Le5uC5oDZFvL/3jH95Zp5IxkmsGlJ+SN
En+BbWfBQCN+PjJFP7LRlTcu5LH5WsfiOZuQ5C93kzlBZU8DQwcwxT0ldg9CQcL6
djA00Nh/br76P3DOCpY2n6Me0jWiBaQrDhzrr5Y9TwDhW+V54LS77a/lEz7JUMnZ
NQW9idxCHw/6Rx2BEpXRY/JWpDrAmYZe5arhBh+WfXSeuoo+wNX2eY5cijpcmi7K
hfw/wJ8+7SIkLV42xscCaBFP76dSrVxAu176ywOML6RKL0UsafX1+QIDAQABMA0G
CSqGSIb3DQEBBQUAA4ICAQCs+7gzSmoafT/nyOOqNnt0Z3gLZV4sXJMeQQez7X6A
gllbqyssfIS7/62tqpkic4WhpalRA9DtBMrvJPqMSHZWqYYo5xVtjuqZvqL3dM0r
GpGOo77wgAZRkwJEJeKotZ68f99z4M+kXCBug/b0WbsJajVhsAkKU2o+K0vlk6P6
nqn/BPu9CzmfNp76Aameq3wU6a7MeVQ7g1DSqMHCarfVSa+XJRsWtzsfOAQzuM4P
39Nksy240u3BRGOwi37kwIiTv5L+JIeKlXKggdQ23h68BM23c+Ogfga6phUIK6qf
4LDfIZYzxiEHDkYDHlejLRi5LaJpQsOt35W884scWKrJtgDwCH76qVzb+DF5Elwv
wcvHNgSq3T2jxFkzywk8KLCqKS6Ik8e3P25VUMft3S6nHPA9AlN73bVeN0m2nKH1
HDV6KoYaEgSSBTwNS3jYXUQcV6cZF7UXCeLcE/Q2XmsDBTLqPUdqKmyXHxKHpwgo
c01mlPXNMVHXRisLdu1jzRXbcSJX07eW5coM8U7OopchGcPdoqwKK8tDkOXpMifW
mLHehJl951nssxIVHtAOdIwa9RgCNvsLCqrUUtuHJQxI5pPecoSgOqE23sRsAkw0
e70RzYSQzfwsHjLfiUJ1WXVb2FwfNiZR05RzJc13pUuWCIm3ErLuKKlsq6VTjB8M
ZQ==
-----END CERTIFICATE-----
