Certificate:
    Data:
        Version: 1 (0x0)
        Serial Number: 362 (0x16a)
        Signature Algorithm: sha1WithRSAEncryption
        Issuer: O=Radvision, OU=NBU/emailAddress=nbu_qa@radvision.com, L=Tel Aviv, ST=none, C=IL, CN=qa.tlv.radvision.com
        Validity
            Not Before: Apr  3 11:58:58 2011 GMT
            Not After : Apr  2 11:58:58 2012 GMT
        Subject: C=IL, ST=none, O=Radvision, OU=NBU, L=Tel Aviv, CN=RadvisionXMLServer.com
        Subject Public Key Info:
            Public Key Algorithm: rsaEncryption
            RSA Public Key: (2048 bit)
                Modulus (2048 bit):
                    00:e8:d4:d8:ed:b8:3d:bb:ac:a4:19:95:83:ec:da:
                    cd:b8:6d:68:f6:83:4e:5b:28:10:f4:82:bd:e2:ca:
                    f6:b9:4b:10:18:d6:46:81:51:37:6e:eb:5c:73:e4:
                    c8:ed:c4:56:64:45:2f:35:a8:43:76:fc:44:fb:89:
                    24:d9:fd:8c:4c:40:b8:ed:91:3e:8c:bd:8f:a9:ef:
                    1b:b6:06:8d:d2:11:56:b7:b2:74:ed:c5:14:df:5c:
                    dd:1f:f2:4e:cd:6f:8d:27:ed:e9:95:54:80:28:ec:
                    d6:c8:20:f0:d4:d2:9c:a9:a2:bd:72:10:06:c8:66:
                    e6:5c:9c:b7:e1:f2:ab:73:9e:e7:24:72:d4:f3:f3:
                    4d:b4:d8:e9:5e:34:a2:40:68:01:e9:ee:04:72:89:
                    8c:aa:8f:79:2d:e9:3e:e6:c6:a7:af:5a:27:57:ee:
                    78:71:e3:8e:8a:31:62:b2:bb:d4:7d:e7:53:31:14:
                    a3:4f:9c:0f:bf:9d:75:46:72:fc:68:ca:78:27:51:
                    2f:bd:b1:98:34:cd:dc:c2:91:ac:8d:8e:c3:7d:c7:
                    f3:e8:38:c4:2e:b1:0f:be:50:3d:c8:9d:5c:3e:bf:
                    6c:9d:4b:21:02:ce:01:cb:8a:14:c1:7e:3a:ba:c0:
                    32:49:be:8a:d3:64:28:95:4a:5b:ca:24:94:c3:7b:
                    93:73
                Exponent: 65537 (0x10001)
    Signature Algorithm: sha1WithRSAEncryption
        b8:94:24:3a:1c:03:c0:0b:cc:62:98:cd:27:13:4d:82:32:39:
        4a:2d:76:cd:9e:81:91:d3:2e:49:d3:f0:94:b9:31:21:67:83:
        29:6a:1b:07:1f:b5:20:da:10:7e:ed:a3:5a:76:b9:85:e5:90:
        da:8e:c0:50:5a:35:13:04:a5:fb:be:7e:a6:99:c6:47:8b:d8:
        0c:bf:b7:c5:dc:6a:76:be:77:79:55:7b:e3:d5:ab:82:62:36:
        ac:b5:f2:aa:bc:44:a4:ce:48:5b:b2:e2:ab:c7:63:05:dd:02:
        d4:60:b5:f1:ed:f5:92:56:dc:0c:49:d4:bc:91:35:9f:0b:6d:
        00:7f:86:59:eb:a5:be:08:62:e7:9e:60:0c:83:f4:fb:95:dc:
        36:5b:54:24:86:68:7f:01:70:ec:5f:31:1a:29:1e:77:3e:d6:
        81:ce:0b:38:9e:47:2c:bb:ff:e7:30:f1:4e:56:2a:5c:09:cf:
        56:6b:d0:5f:56:2f:d7:10:46:39:92:28:e5:aa:1d:74:b4:6c:
        91:b3:09:c0:2a:8e:8b:ef:98:14:95:c9:73:4d:95:fd:04:f6:
        fc:50:f6:3b:cc:f4:7f:dd:e4:8c:1a:83:43:18:95:b8:2d:19:
        96:c9:67:ac:de:ef:14:b9:92:e2:f5:50:e1:88:d7:49:77:5e:
        8d:9a:2f:a7:0d:5b:b9:7d:c4:6b:4b:15:59:dd:8f:8c:7d:d5:
        1f:40:70:a9:db:4e:4b:7c:f9:98:b6:86:ca:54:54:a7:cb:a0:
        1e:55:d0:68:9f:6d:4c:69:57:d3:e8:9b:43:b8:ab:96:38:3c:
        f0:8c:f5:2a:ed:96:16:2a:22:fd:b9:f8:fe:4d:29:2e:c7:39:
        98:5b:ad:0c:b1:5d:c8:fc:71:a6:f5:7a:be:9c:41:16:5a:99:
        ba:b5:47:65:72:38:94:00:9d:e6:66:1b:b1:3d:00:37:0a:b8:
        f0:8c:5d:57:d4:eb:25:2d:c7:5a:fd:03:4a:85:82:4b:c8:07:
        4e:a1:14:39:80:d8:14:8b:fa:2b:5b:6b:0e:0e:72:9f:58:6f:
        4f:2e:0f:05:92:70:bb:ab:cf:03:4a:77:e6:41:ad:dd:61:ce:
        db:02:62:b4:19:f2:9d:5b:52:6d:25:c7:25:22:f9:91:28:0d:
        47:34:a9:ee:bb:73:4c:73:c8:a6:84:a1:4d:b1:68:74:30:f9:
        2e:ac:fe:96:08:80:6f:d0:b4:2d:9e:6d:42:89:a5:d9:e1:09:
        c1:f9:c3:30:11:a5:8d:0c:0c:d6:42:4c:5d:ad:00:91:cc:01:
        68:f8:f8:7a:7a:d3:c3:a3:f8:c4:a2:81:f1:f6:1a:5b:08:46:
        f7:45:7f:3f:a6:1d:46:4f
-----BEGIN CERTIFICATE-----
MIIEfTCCAmUCAgFqMA0GCSqGSIb3DQEBBQUAMIGVMRIwEAYDVQQKEwlSYWR2aXNp
b24xDDAKBgNVBAsTA05CVTEjMCEGCSqGSIb3DQEJARYUbmJ1X3FhQHJhZHZpc2lv
bi5jb20xETAPBgNVBAcTCFRlbCBBdml2MQ0wCwYDVQQIEwRub25lMQswCQYDVQQG
EwJJTDEdMBsGA1UEAxMUcWEudGx2LnJhZHZpc2lvbi5jb20wHhcNMTEwNDAzMTE1
ODU4WhcNMTIwNDAyMTE1ODU4WjByMQswCQYDVQQGEwJJTDENMAsGA1UECBMEbm9u
ZTESMBAGA1UEChMJUmFkdmlzaW9uMQwwCgYDVQQLEwNOQlUxETAPBgNVBAcTCFRl
bCBBdml2MR8wHQYDVQQDExZSYWR2aXNpb25YTUxTZXJ2ZXIuY29tMIIBIjANBgkq
hkiG9w0BAQEFAAOCAQ8AMIIBCgKCAQEA6NTY7bg9u6ykGZWD7NrNuG1o9oNOWygQ
9IK94sr2uUsQGNZGgVE3butcc+TI7cRWZEUvNahDdvxE+4kk2f2MTEC47ZE+jL2P
qe8btgaN0hFWt7J07cUU31zdH/JOzW+NJ+3plVSAKOzWyCDw1NKcqaK9chAGyGbm
XJy34fKrc57nJHLU8/NNtNjpXjSiQGgB6e4EcomMqo95Lek+5sanr1onV+54ceOO
ijFisrvUfedTMRSjT5wPv511RnL8aMp4J1EvvbGYNM3cwpGsjY7Dfcfz6DjELrEP
vlA9yJ1cPr9snUshAs4By4oUwX46usAySb6K02QolUpbyiSUw3uTcwIDAQABMA0G
CSqGSIb3DQEBBQUAA4ICAQC4lCQ6HAPAC8ximM0nE02CMjlKLXbNnoGR0y5J0/CU
uTEhZ4MpahsHH7Ug2hB+7aNadrmF5ZDajsBQWjUTBKX7vn6mmcZHi9gMv7fF3Gp2
vnd5VXvj1auCYjastfKqvESkzkhbsuKrx2MF3QLUYLXx7fWSVtwMSdS8kTWfC20A
f4ZZ66W+CGLnnmAMg/T7ldw2W1Qkhmh/AXDsXzEaKR53PtaBzgs4nkcsu//nMPFO
VipcCc9Wa9BfVi/XEEY5kijlqh10tGyRswnAKo6L75gUlclzTZX9BPb8UPY7zPR/
3eSMGoNDGJW4LRmWyWes3u8UuZLi9VDhiNdJd16Nmi+nDVu5fcRrSxVZ3Y+MfdUf
QHCp205LfPmYtobKVFSny6AeVdBon21MaVfT6JtDuKuWODzwjPUq7ZYWKiL9ufj+
TSkuxzmYW60MsV3I/HGm9Xq+nEEWWpm6tUdlcjiUAJ3mZhuxPQA3CrjwjF1X1Osl
Lcda/QNKhYJLyAdOoRQ5gNgUi/orW2sODnKfWG9PLg8FknC7q88DSnfmQa3dYc7b
AmK0GfKdW1JtJcclIvmRKA1HNKnuu3NMc8imhKFNsWh0MPkurP6WCIBv0LQtnm1C
iaXZ4QnB+cMwEaWNDAzWQkxdrQCRzAFo+Ph6etPDo/jEooHx9hpbCEb3RX8/ph1G
Tw==
-----END CERTIFICATE-----
